target datalayout = "e-m:e-p270:32:32-p271:32:32-p272:64:64-i64:64-i128:128-f80:128-n8:16:32:64-S128"
target triple = "x86_64-pc-linux-gnu"

%struct.nameData = type { [64 x i8] }
%struct.ScanKeyData = type { i32, i16, i16, i32, i32, %struct.FmgrInfo, i64 }
%struct.FmgrInfo = type { ptr, i32, i16, i8, i8, i8, ptr, ptr, ptr }
%struct.FormData_pg_constraint = type { i32, %struct.nameData, i32, i8, i8, i8, i8, i8, i32, i32, i32, i32, i32, i8, i8, i8, i8, i16, i8, i8 }
%struct.HeapTupleData = type { i32, %struct.ItemPointerData, i32, ptr }
%struct.ItemPointerData = type { %struct.BlockIdData, i16 }
%struct.BlockIdData = type { i16, i16 }
%struct.HeapTupleHeaderData = type { %union.anon, %struct.ItemPointerData, i16, i16, i8, [0 x i8] }
%union.anon = type { %struct.HeapTupleFields }
%struct.HeapTupleFields = type { i32, i32, %union.anon.0 }
%union.anon.0 = type { i32 }
%struct.ArrayType = type { i32, i32, i32, i32 }

@.str.1 = private unnamed_addr constant [35 x i8] c"conkey is not a 1-D smallint array\00", align 1
@.str.2 = private unnamed_addr constant [16 x i8] c"pg_constraint.c\00", align 1
@__func__.extractNotNullColumn = private unnamed_addr constant [21 x i8] c"extractNotNullColumn\00", align 1

; Function Attrs: inlinehint nounwind uwtable
define internal ptr @DatumGetPointer(i64 noundef %0) #3 {
  %2 = alloca i64, align 8
  store i64 %0, ptr %2, align 8
  %3 = load i64, ptr %2, align 8
  %4 = inttoptr i64 %3 to ptr
  ret ptr %4
}

; Function Attrs: nounwind uwtable
define dso_local signext i16 @extractNotNullColumn(ptr noundef %0) #0 {
  %2 = alloca ptr, align 8
  %3 = alloca i64, align 8
  %4 = alloca ptr, align 8
  store ptr %0, ptr %2, align 8
  call void @llvm.lifetime.start.p0(i64 8, ptr %3) #9
  call void @llvm.lifetime.start.p0(i64 8, ptr %4) #9
  %5 = load ptr, ptr %2, align 8
  %6 = call i64 @SysCacheGetAttrNotNull(i32 noundef 19, ptr noundef %5, i16 noundef signext 21)
  store i64 %6, ptr %3, align 8
  %7 = load i64, ptr %3, align 8
  %8 = call ptr @DatumGetPointer(i64 noundef %7)
  %9 = call ptr @pg_detoast_datum(ptr noundef %8)
  store ptr %9, ptr %4, align 8
  %10 = load ptr, ptr %4, align 8
  %11 = getelementptr inbounds nuw %struct.ArrayType, ptr %10, i32 0, i32 1
  %12 = load i32, ptr %11, align 4
  %13 = icmp ne i32 %12, 1
  br i1 %13, label %30, label %14

14:                                               ; preds = %1
  %15 = load ptr, ptr %4, align 8
  %16 = getelementptr inbounds nuw %struct.ArrayType, ptr %15, i32 0, i32 2
  %17 = load i32, ptr %16, align 4
  %18 = icmp ne i32 %17, 0
  br i1 %18, label %30, label %19

19:                                               ; preds = %14
  %20 = load ptr, ptr %4, align 8
  %21 = getelementptr inbounds nuw %struct.ArrayType, ptr %20, i32 0, i32 3
  %22 = load i32, ptr %21, align 4
  %23 = icmp ne i32 %22, 21
  br i1 %23, label %30, label %24

24:                                               ; preds = %19
  %25 = load ptr, ptr %4, align 8
  %26 = getelementptr inbounds nuw i8, ptr %25, i64 16
  %27 = getelementptr inbounds i32, ptr %26, i64 0
  %28 = load i32, ptr %27, align 4
  %29 = icmp ne i32 %28, 1
  br i1 %29, label %30, label %41

30:                                               ; preds = %24, %19, %14, %1
  br label %31

31:                                               ; preds = %30
  br i1 true, label %32, label %34

32:                                               ; preds = %31
  %33 = call zeroext i1 @errstart_cold(i32 noundef 21, ptr noundef null) #11
  br i1 %33, label %36, label %38

34:                                               ; preds = %31
  %35 = call zeroext i1 @errstart(i32 noundef 21, ptr noundef null)
  br i1 %35, label %36, label %38

36:                                               ; preds = %34, %32
  %37 = call i32 (ptr, ...) @errmsg_internal(ptr noundef @.str.1)
  call void @errfinish(ptr noundef @.str.2, i32 noundef 711, ptr noundef @__func__.extractNotNullColumn)
  br label %38

38:                                               ; preds = %36, %34, %32
  unreachable

39:                                               ; No predecessors!
  br label %40

40:                                               ; preds = %39
  br label %41

41:                                               ; preds = %40, %24
  %42 = load ptr, ptr %4, align 8
  %43 = load ptr, ptr %4, align 8
  %44 = getelementptr inbounds nuw %struct.ArrayType, ptr %43, i32 0, i32 2
  %45 = load i32, ptr %44, align 4
  %46 = icmp ne i32 %45, 0
  br i1 %46, label %47, label %52

47:                                               ; preds = %41
  %48 = load ptr, ptr %4, align 8
  %49 = getelementptr inbounds nuw %struct.ArrayType, ptr %48, i32 0, i32 2
  %50 = load i32, ptr %49, align 4
  %51 = sext i32 %50 to i64
  br label %61

52:                                               ; preds = %41
  %53 = load ptr, ptr %4, align 8
  %54 = getelementptr inbounds nuw %struct.ArrayType, ptr %53, i32 0, i32 1
  %55 = load i32, ptr %54, align 4
  %56 = sext i32 %55 to i64
  %57 = mul i64 8, %56
  %58 = add i64 16, %57
  %59 = add i64 %58, 7
  %60 = and i64 %59, -8
  br label %61

61:                                               ; preds = %52, %47
  %62 = phi i64 [ %51, %47 ], [ %60, %52 ]
  %63 = getelementptr inbounds nuw i8, ptr %42, i64 %62
  %64 = getelementptr inbounds i16, ptr %63, i64 0
  %65 = load i16, ptr %64, align 2
  call void @llvm.lifetime.end.p0(i64 8, ptr %4) #9
  call void @llvm.lifetime.end.p0(i64 8, ptr %3) #9
  ret i16 %65
}

; Function Attrs: inlinehint nounwind uwtable
define internal ptr @GETSTRUCT(ptr noundef %0) #3 {
  %2 = alloca ptr, align 8
  store ptr %0, ptr %2, align 8
  %3 = load ptr, ptr %2, align 8
  %4 = getelementptr inbounds nuw %struct.HeapTupleData, ptr %3, i32 0, i32 3
  %5 = load ptr, ptr %4, align 8
  %6 = load ptr, ptr %2, align 8
  %7 = getelementptr inbounds nuw %struct.HeapTupleData, ptr %6, i32 0, i32 3
  %8 = load ptr, ptr %7, align 8
  %9 = getelementptr inbounds nuw %struct.HeapTupleHeaderData, ptr %8, i32 0, i32 4
  %10 = load i8, ptr %9, align 2
  %11 = zext i8 %10 to i32
  %12 = sext i32 %11 to i64
  %13 = getelementptr inbounds i8, ptr %5, i64 %12
  ret ptr %13
}

; Function Attrs: inlinehint nounwind uwtable
define internal i64 @ObjectIdGetDatum(i32 noundef %0) #3 {
  %2 = alloca i32, align 4
  store i32 %0, ptr %2, align 4
  %3 = load i32, ptr %2, align 4
  %4 = zext i32 %3 to i64
  ret i64 %4
}

; Function Attrs: nounwind uwtable
define dso_local ptr @findNotNullConstraintAttnum(i32 noundef %0, i16 noundef signext %1) #0 {
  %3 = alloca i32, align 4
  %4 = alloca i16, align 2
  %5 = alloca ptr, align 8
  %6 = alloca ptr, align 8
  %7 = alloca ptr, align 8
  %8 = alloca ptr, align 8
  %9 = alloca %struct.ScanKeyData, align 8
  %10 = alloca ptr, align 8
  %11 = alloca i16, align 2
  %12 = alloca i32, align 4
  store i32 %0, ptr %3, align 4
  store i16 %1, ptr %4, align 2
  call void @llvm.lifetime.start.p0(i64 8, ptr %5) #9
  call void @llvm.lifetime.start.p0(i64 8, ptr %6) #9
  call void @llvm.lifetime.start.p0(i64 8, ptr %7) #9
  store ptr null, ptr %7, align 8
  call void @llvm.lifetime.start.p0(i64 8, ptr %8) #9
  call void @llvm.lifetime.start.p0(i64 72, ptr %9) #9
  %13 = call ptr @table_open(i32 noundef 2606, i32 noundef 1)
  store ptr %13, ptr %5, align 8
  %14 = load i32, ptr %3, align 4
  %15 = call i64 @ObjectIdGetDatum(i32 noundef %14)
  call void @ScanKeyInit(ptr noundef %9, i16 noundef signext 9, i16 noundef zeroext 3, i32 noundef 184, i64 noundef %15)
  %16 = load ptr, ptr %5, align 8
  %17 = call ptr @systable_beginscan(ptr noundef %16, i32 noundef 2665, i1 noundef zeroext true, ptr noundef null, i32 noundef 1, ptr noundef %9)
  store ptr %17, ptr %8, align 8
  br label %18

18:                                               ; preds = %49, %2
  %19 = load ptr, ptr %8, align 8
  %20 = call ptr @systable_getnext(ptr noundef %19)
  store ptr %20, ptr %6, align 8
  %21 = icmp ne ptr %20, null
  br i1 %21, label %22, label %51

22:                                               ; preds = %18
  call void @llvm.lifetime.start.p0(i64 8, ptr %10) #9
  %23 = load ptr, ptr %6, align 8
  %24 = call ptr @GETSTRUCT(ptr noundef %23)
  store ptr %24, ptr %10, align 8
  call void @llvm.lifetime.start.p0(i64 2, ptr %11) #9
  %25 = load ptr, ptr %10, align 8
  %26 = getelementptr inbounds nuw %struct.FormData_pg_constraint, ptr %25, i32 0, i32 3
  %27 = load i8, ptr %26, align 4
  %28 = sext i8 %27 to i32
  %29 = icmp ne i32 %28, 110
  br i1 %29, label %30, label %31

30:                                               ; preds = %22
  store i32 2, ptr %12, align 4
  br label %49, !llvm.loop !19

31:                                               ; preds = %22
  %32 = load ptr, ptr %10, align 8
  %33 = getelementptr inbounds nuw %struct.FormData_pg_constraint, ptr %32, i32 0, i32 7
  %34 = load i8, ptr %33, align 4, !range !13, !noundef !14
  %35 = trunc i8 %34 to i1
  br i1 %35, label %37, label %36

36:                                               ; preds = %31
  store i32 2, ptr %12, align 4
  br label %49, !llvm.loop !19

37:                                               ; preds = %31
  %38 = load ptr, ptr %6, align 8
  %39 = call signext i16 @extractNotNullColumn(ptr noundef %38)
  store i16 %39, ptr %11, align 2
  %40 = load i16, ptr %11, align 2
  %41 = sext i16 %40 to i32
  %42 = load i16, ptr %4, align 2
  %43 = sext i16 %42 to i32
  %44 = icmp ne i32 %41, %43
  br i1 %44, label %45, label %46

45:                                               ; preds = %37
  store i32 2, ptr %12, align 4
  br label %49, !llvm.loop !19

46:                                               ; preds = %37
  %47 = load ptr, ptr %6, align 8
  %48 = call ptr @heap_copytuple(ptr noundef %47)
  store ptr %48, ptr %7, align 8
  store i32 3, ptr %12, align 4
  br label %49

49:                                               ; preds = %46, %45, %36, %30
  call void @llvm.lifetime.end.p0(i64 2, ptr %11) #9
  call void @llvm.lifetime.end.p0(i64 8, ptr %10) #9
  %50 = load i32, ptr %12, align 4
  switch i32 %50, label %55 [
    i32 2, label %18
    i32 3, label %51
  ]

51:                                               ; preds = %49, %18
  %52 = load ptr, ptr %8, align 8
  call void @systable_endscan(ptr noundef %52)
  %53 = load ptr, ptr %5, align 8
  call void @table_close(ptr noundef %53, i32 noundef 1)
  %54 = load ptr, ptr %7, align 8
  store i32 1, ptr %12, align 4
  call void @llvm.lifetime.end.p0(i64 72, ptr %9) #9
  call void @llvm.lifetime.end.p0(i64 8, ptr %8) #9
  call void @llvm.lifetime.end.p0(i64 8, ptr %7) #9
  call void @llvm.lifetime.end.p0(i64 8, ptr %6) #9
  call void @llvm.lifetime.end.p0(i64 8, ptr %5) #9
  ret ptr %54

55:                                               ; preds = %49
  unreachable
}