; Function Attrs: nounwind uwtable
define dso_local ptr @findNotNullConstraintAttnum(i32 noundef %0, i16 noundef signext %1) local_unnamed_addr #0 {
  %3 = alloca %struct.ScanKeyData, align 8
  call void @llvm.lifetime.start.p0(i64 72, ptr nonnull %3) #12
  %4 = tail call ptr @table_open(i32 noundef 2606, i32 noundef 1) #12
  %5 = zext i32 %0 to i64
  call void @ScanKeyInit(ptr noundef nonnull %3, i16 noundef signext 9, i16 noundef zeroext 3, i32 noundef 184, i64 noundef %5) #12
  %6 = call ptr @systable_beginscan(ptr noundef %4, i32 noundef 2665, i1 noundef zeroext true, ptr noundef null, i32 noundef 1, ptr noundef nonnull %3) #12
  %7 = call ptr @systable_getnext(ptr noundef %6) #12
  %.not23 = icmp eq ptr %7, null
  br i1 %.not23, label %.loopexit, label %.lr.ph

.lr.ph:                                           ; preds = %2, %41
  %8 = phi ptr [ %42, %41 ], [ %7, %2 ]
  %9 = getelementptr i8, ptr %8, i64 16
  %.val = load ptr, ptr %9, align 8
  %10 = getelementptr inbounds nuw i8, ptr %.val, i64 22
  %11 = load i8, ptr %10, align 2
  %12 = zext i8 %11 to i64
  %13 = getelementptr inbounds nuw i8, ptr %.val, i64 %12
  %14 = getelementptr inbounds nuw i8, ptr %13, i64 72
  %15 = load i8, ptr %14, align 4
  %.not15 = icmp eq i8 %15, 110
  br i1 %.not15, label %16, label %41, !llvm.loop !15

16:                                               ; preds = %.lr.ph
  %17 = getelementptr inbounds nuw i8, ptr %13, i64 76
  %18 = load i8, ptr %17, align 4, !range !16, !noundef !17
  %19 = trunc nuw i8 %18 to i1
  br i1 %19, label %20, label %41, !llvm.loop !15

20:                                               ; preds = %16
  %21 = call i64 @SysCacheGetAttrNotNull(i32 noundef 19, ptr noundef nonnull %8, i16 noundef signext 21) #12
  %22 = inttoptr i64 %21 to ptr
  %23 = call ptr @pg_detoast_datum(ptr noundef %22) #12
  %24 = getelementptr inbounds nuw i8, ptr %23, i64 4
  %25 = load i32, ptr %24, align 4
  %.not.i = icmp eq i32 %25, 1
  br i1 %.not.i, label %26, label %35

26:                                               ; preds = %20
  %27 = getelementptr inbounds nuw i8, ptr %23, i64 8
  %28 = load i32, ptr %27, align 4
  %.not10.i = icmp eq i32 %28, 0
  br i1 %.not10.i, label %29, label %35

29:                                               ; preds = %26
  %30 = getelementptr inbounds nuw i8, ptr %23, i64 12
  %31 = load i32, ptr %30, align 4
  %.not11.i = icmp eq i32 %31, 21
  br i1 %.not11.i, label %32, label %35

32:                                               ; preds = %29
  %33 = getelementptr inbounds nuw i8, ptr %23, i64 16
  %34 = load i32, ptr %33, align 4
  %.not12.i = icmp eq i32 %34, 1
  br i1 %.not12.i, label %extractNotNullColumn.exit, label %35

35:                                               ; preds = %32, %29, %26, %20
  %36 = call zeroext i1 @errstart_cold(i32 noundef 21, ptr noundef null) #14
  call void @llvm.assume(i1 %36)
  %37 = call i32 (ptr, ...) @errmsg_internal(ptr noundef nonnull @.str.1) #12
  call void @errfinish(ptr noundef nonnull @.str.2, i32 noundef 711, ptr noundef nonnull @__func__.extractNotNullColumn) #12
  unreachable

extractNotNullColumn.exit:                        ; preds = %32
  %38 = getelementptr inbounds nuw i8, ptr %23, i64 24
  %39 = load i16, ptr %38, align 2
  %.not16 = icmp eq i16 %39, %1
  br i1 %.not16, label %.thread, label %41, !llvm.loop !15

.thread:                                          ; preds = %extractNotNullColumn.exit
  %40 = call ptr @heap_copytuple(ptr noundef nonnull %8) #12
  br label %.loopexit

41:                                               ; preds = %extractNotNullColumn.exit, %16, %.lr.ph
  %42 = call ptr @systable_getnext(ptr noundef %6) #12
  %.not = icmp eq ptr %42, null
  br i1 %.not, label %.loopexit, label %.lr.ph

.loopexit:                                        ; preds = %41, %2, %.thread
  %.1 = phi ptr [ %40, %.thread ], [ null, %2 ], [ null, %41 ]
  call void @systable_endscan(ptr noundef %6) #12
  call void @table_close(ptr noundef %4, i32 noundef 1) #12
  call void @llvm.lifetime.end.p0(i64 72, ptr nonnull %3) #12
  ret ptr %.1
}